target datalayout = "e-m:e-p270:32:32-p271:32:32-p272:64:64-i64:64-i128:128-f80:128-n8:16:32:64-S128"
target triple = "x86_64-pc-linux-gnu"

; Function Attrs: mustprogress uwtable
define internal void @_ZL7onMouseiiiiPv(i32 noundef %0, i32 noundef %1, i32 noundef %2, i32 noundef %3, ptr noundef %4) #4 {
  %6 = alloca i32, align 4
  %7 = alloca i32, align 4
  %8 = alloca i32, align 4
  %9 = alloca i32, align 4
  %10 = alloca ptr, align 8
  %11 = alloca ptr, align 8
  store i32 %0, ptr %6, align 4, !tbaa !25
  store i32 %1, ptr %7, align 4, !tbaa !25
  store i32 %2, ptr %8, align 4, !tbaa !25
  store i32 %3, ptr %9, align 4, !tbaa !25
  store ptr %4, ptr %10, align 8, !tbaa !79
  call void @llvm.lifetime.start.p0(i64 8, ptr %11) #3
  %12 = load ptr, ptr %10, align 8, !tbaa !79
  store ptr %12, ptr %11, align 8, !tbaa !62
  %13 = load i32, ptr %6, align 4, !tbaa !25
  switch i32 %13, label %22 [
    i32 4, label %14
    i32 2, label %18
  ]

14:                                               ; preds = %5
  %15 = load ptr, ptr %11, align 8, !tbaa !62
  %16 = load i32, ptr %7, align 4, !tbaa !25
  %17 = load i32, ptr %8, align 4, !tbaa !25
  call void @_Z24addPointRetrainAndRedrawR4Dataiii(ptr noundef nonnull align 8 dereferenceable(288) %15, i32 noundef %16, i32 noundef %17, i32 noundef 1)
  br label %22

18:                                               ; preds = %5
  %19 = load ptr, ptr %11, align 8, !tbaa !62
  %20 = load i32, ptr %7, align 4, !tbaa !25
  %21 = load i32, ptr %8, align 4, !tbaa !25
  call void @_Z24addPointRetrainAndRedrawR4Dataiii(ptr noundef nonnull align 8 dereferenceable(288) %19, i32 noundef %20, i32 noundef %21, i32 noundef -1)
  br label %22

22:                                               ; preds = %5, %18, %14
  call void @llvm.lifetime.end.p0(i64 8, ptr %11) #3
  ret void
}