; Function Attrs: mustprogress uwtable
define internal void @_ZL7onMouseiiiiPv(i32 noundef %0, i32 noundef %1, i32 noundef %2, i32 %3, ptr noundef %4) #3 {
  switch i32 %0, label %7 [
    i32 4, label %.sink.split
    i32 2, label %6
  ]

6:                                                ; preds = %5
  br label %.sink.split

.sink.split:                                      ; preds = %5, %6
  %.sink = phi i32 [ -1, %6 ], [ 1, %5 ]
  tail call void @_Z24addPointRetrainAndRedrawR4Dataiii(ptr noundef nonnull align 8 dereferenceable(288) %4, i32 noundef %1, i32 noundef %2, i32 noundef %.sink)
  br label %7

7:                                                ; preds = %.sink.split, %5
  ret void
}